target datalayout = "e-m:e-p270:32:32-p271:32:32-p272:64:64-i64:64-i128:128-f80:128-n8:16:32:64-S128"
target triple = "x86_64-pc-linux-gnu"

%struct.stbhw__process = type { ptr, ptr, ptr, ptr, ptr, i32, i32, i32 }
%struct.stbhw_config = type { i32, i32, [6 x i32], i32, i32, [4 x [4 x i32]] }
%struct.stbhw_tile = type { i8, i8, i8, i8, i8, i8, [1 x i8] }
%struct.stbhw_tileset = type { i32, [6 x i32], i32, ptr, ptr, i32, i32, i32, i32 }

; Function Attrs: nounwind uwtable
define void @stbhw__parse_v_rect(ptr noundef %0, i32 noundef %1, i32 noundef %2, i32 noundef %3, i32 noundef %4, i32 noundef %5, i32 noundef %6, i32 noundef %7, i32 noundef %8) #0 {
  %10 = alloca ptr, align 8
  %11 = alloca i32, align 4
  %12 = alloca i32, align 4
  %13 = alloca i32, align 4
  %14 = alloca i32, align 4
  %15 = alloca i32, align 4
  %16 = alloca i32, align 4
  %17 = alloca i32, align 4
  %18 = alloca i32, align 4
  %19 = alloca i32, align 4
  %20 = alloca ptr, align 8
  %21 = alloca i32, align 4
  %22 = alloca i32, align 4
  store ptr %0, ptr %10, align 8, !tbaa !8
  store i32 %1, ptr %11, align 4, !tbaa !10
  store i32 %2, ptr %12, align 4, !tbaa !10
  store i32 %3, ptr %13, align 4, !tbaa !10
  store i32 %4, ptr %14, align 4, !tbaa !10
  store i32 %5, ptr %15, align 4, !tbaa !10
  store i32 %6, ptr %16, align 4, !tbaa !10
  store i32 %7, ptr %17, align 4, !tbaa !10
  store i32 %8, ptr %18, align 4, !tbaa !10
  call void @llvm.lifetime.start.p0(i64 4, ptr %19) #6
  %23 = load ptr, ptr %10, align 8, !tbaa !8
  %24 = getelementptr inbounds nuw %struct.stbhw__process, ptr %23, i32 0, i32 1
  %25 = load ptr, ptr %24, align 8, !tbaa !15
  %26 = getelementptr inbounds nuw %struct.stbhw_config, ptr %25, i32 0, i32 1
  %27 = load i32, ptr %26, align 4, !tbaa !16
  store i32 %27, ptr %19, align 4, !tbaa !10
  call void @llvm.lifetime.start.p0(i64 8, ptr %20) #6
  %28 = load i32, ptr %19, align 4, !tbaa !10
  %29 = mul nsw i32 %28, 2
  %30 = mul nsw i32 3, %29
  %31 = load i32, ptr %19, align 4, !tbaa !10
  %32 = mul nsw i32 %30, %31
  %33 = sext i32 %32 to i64
  %34 = add i64 6, %33
  %35 = call noalias ptr @malloc(i64 noundef %34) #7
  store ptr %35, ptr %20, align 8, !tbaa !34
  call void @llvm.lifetime.start.p0(i64 4, ptr %21) #6
  call void @llvm.lifetime.start.p0(i64 4, ptr %22) #6
  %36 = load i32, ptr %11, align 4, !tbaa !10
  %37 = add nsw i32 %36, 1
  store i32 %37, ptr %11, align 4, !tbaa !10
  %38 = load i32, ptr %12, align 4, !tbaa !10
  %39 = add nsw i32 %38, 1
  store i32 %39, ptr %12, align 4, !tbaa !10
  %40 = load i32, ptr %13, align 4, !tbaa !10
  %41 = trunc i32 %40 to i8
  %42 = load ptr, ptr %20, align 8, !tbaa !34
  %43 = getelementptr inbounds nuw %struct.stbhw_tile, ptr %42, i32 0, i32 0
  store i8 %41, ptr %43, align 1, !tbaa !65
  %44 = load i32, ptr %14, align 4, !tbaa !10
  %45 = trunc i32 %44 to i8
  %46 = load ptr, ptr %20, align 8, !tbaa !34
  %47 = getelementptr inbounds nuw %struct.stbhw_tile, ptr %46, i32 0, i32 1
  store i8 %45, ptr %47, align 1, !tbaa !67
  %48 = load i32, ptr %15, align 4, !tbaa !10
  %49 = trunc i32 %48 to i8
  %50 = load ptr, ptr %20, align 8, !tbaa !34
  %51 = getelementptr inbounds nuw %struct.stbhw_tile, ptr %50, i32 0, i32 2
  store i8 %49, ptr %51, align 1, !tbaa !68
  %52 = load i32, ptr %16, align 4, !tbaa !10
  %53 = trunc i32 %52 to i8
  %54 = load ptr, ptr %20, align 8, !tbaa !34
  %55 = getelementptr inbounds nuw %struct.stbhw_tile, ptr %54, i32 0, i32 3
  store i8 %53, ptr %55, align 1, !tbaa !69
  %56 = load i32, ptr %17, align 4, !tbaa !10
  %57 = trunc i32 %56 to i8
  %58 = load ptr, ptr %20, align 8, !tbaa !34
  %59 = getelementptr inbounds nuw %struct.stbhw_tile, ptr %58, i32 0, i32 4
  store i8 %57, ptr %59, align 1, !tbaa !70
  %60 = load i32, ptr %18, align 4, !tbaa !10
  %61 = trunc i32 %60 to i8
  %62 = load ptr, ptr %20, align 8, !tbaa !34
  %63 = getelementptr inbounds nuw %struct.stbhw_tile, ptr %62, i32 0, i32 5
  store i8 %61, ptr %63, align 1, !tbaa !71
  store i32 0, ptr %22, align 4, !tbaa !10
  br label %64

64:                                               ; preds = %110, %9
  %65 = load i32, ptr %22, align 4, !tbaa !10
  %66 = load i32, ptr %19, align 4, !tbaa !10
  %67 = mul nsw i32 %66, 2
  %68 = icmp slt i32 %65, %67
  br i1 %68, label %69, label %113

69:                                               ; preds = %64
  store i32 0, ptr %21, align 4, !tbaa !10
  br label %70

70:                                               ; preds = %106, %69
  %71 = load i32, ptr %21, align 4, !tbaa !10
  %72 = load i32, ptr %19, align 4, !tbaa !10
  %73 = icmp slt i32 %71, %72
  br i1 %73, label %74, label %109

74:                                               ; preds = %70
  %75 = load ptr, ptr %20, align 8, !tbaa !34
  %76 = getelementptr inbounds nuw %struct.stbhw_tile, ptr %75, i32 0, i32 6
  %77 = getelementptr inbounds [1 x i8], ptr %76, i64 0, i64 0
  %78 = load i32, ptr %22, align 4, !tbaa !10
  %79 = load i32, ptr %19, align 4, !tbaa !10
  %80 = mul nsw i32 3, %79
  %81 = mul nsw i32 %78, %80
  %82 = sext i32 %81 to i64
  %83 = getelementptr inbounds i8, ptr %77, i64 %82
  %84 = load i32, ptr %21, align 4, !tbaa !10
  %85 = mul nsw i32 %84, 3
  %86 = sext i32 %85 to i64
  %87 = getelementptr inbounds i8, ptr %83, i64 %86
  %88 = load ptr, ptr %10, align 8, !tbaa !8
  %89 = getelementptr inbounds nuw %struct.stbhw__process, ptr %88, i32 0, i32 4
  %90 = load ptr, ptr %89, align 8, !tbaa !92
  %91 = load i32, ptr %12, align 4, !tbaa !10
  %92 = load i32, ptr %22, align 4, !tbaa !10
  %93 = add nsw i32 %91, %92
  %94 = load ptr, ptr %10, align 8, !tbaa !8
  %95 = getelementptr inbounds nuw %struct.stbhw__process, ptr %94, i32 0, i32 5
  %96 = load i32, ptr %95, align 8, !tbaa !93
  %97 = mul nsw i32 %93, %96
  %98 = sext i32 %97 to i64
  %99 = getelementptr inbounds i8, ptr %90, i64 %98
  %100 = load i32, ptr %11, align 4, !tbaa !10
  %101 = load i32, ptr %21, align 4, !tbaa !10
  %102 = add nsw i32 %100, %101
  %103 = mul nsw i32 %102, 3
  %104 = sext i32 %103 to i64
  %105 = getelementptr inbounds i8, ptr %99, i64 %104
  call void @llvm.memcpy.p0.p0.i64(ptr align 1 %87, ptr align 1 %105, i64 3, i1 false)
  br label %106

106:                                              ; preds = %74
  %107 = load i32, ptr %21, align 4, !tbaa !10
  %108 = add nsw i32 %107, 1
  store i32 %108, ptr %21, align 4, !tbaa !10
  br label %70, !llvm.loop !97

109:                                              ; preds = %70
  br label %110

110:                                              ; preds = %109
  %111 = load i32, ptr %22, align 4, !tbaa !10
  %112 = add nsw i32 %111, 1
  store i32 %112, ptr %22, align 4, !tbaa !10
  br label %64, !llvm.loop !98

113:                                              ; preds = %64
  %114 = load ptr, ptr %20, align 8, !tbaa !34
  %115 = load ptr, ptr %10, align 8, !tbaa !8
  %116 = getelementptr inbounds nuw %struct.stbhw__process, ptr %115, i32 0, i32 0
  %117 = load ptr, ptr %116, align 8, !tbaa !96
  %118 = getelementptr inbounds nuw %struct.stbhw_tileset, ptr %117, i32 0, i32 4
  %119 = load ptr, ptr %118, align 8, !tbaa !88
  %120 = load ptr, ptr %10, align 8, !tbaa !8
  %121 = getelementptr inbounds nuw %struct.stbhw__process, ptr %120, i32 0, i32 0
  %122 = load ptr, ptr %121, align 8, !tbaa !96
  %123 = getelementptr inbounds nuw %struct.stbhw_tileset, ptr %122, i32 0, i32 7
  %124 = load i32, ptr %123, align 8, !tbaa !89
  %125 = add nsw i32 %124, 1
  store i32 %125, ptr %123, align 8, !tbaa !89
  %126 = sext i32 %124 to i64
  %127 = getelementptr inbounds ptr, ptr %119, i64 %126
  store ptr %114, ptr %127, align 8, !tbaa !34
  call void @llvm.lifetime.end.p0(i64 4, ptr %22) #6
  call void @llvm.lifetime.end.p0(i64 4, ptr %21) #6
  call void @llvm.lifetime.end.p0(i64 8, ptr %20) #6
  call void @llvm.lifetime.end.p0(i64 4, ptr %19) #6
  ret void
}