; Function Attrs: nofree nounwind uwtable
define void @stbhw__parse_v_rect(ptr noundef readonly captures(none) %0, i32 noundef %1, i32 noundef %2, i32 noundef %3, i32 noundef %4, i32 noundef %5, i32 noundef %6, i32 noundef %7, i32 noundef %8) #10 {
  %10 = getelementptr inbounds nuw i8, ptr %0, i64 8
  %11 = load ptr, ptr %10, align 8, !tbaa !12
  %12 = getelementptr inbounds nuw i8, ptr %11, i64 4
  %13 = load i32, ptr %12, align 4, !tbaa !13
  %14 = mul nsw i32 %13, 6
  %15 = mul nsw i32 %14, %13
  %16 = sext i32 %15 to i64
  %17 = add nsw i64 %16, 6
  %18 = tail call noalias ptr @malloc(i64 noundef %17) #16
  %19 = trunc i32 %3 to i8
  store i8 %19, ptr %18, align 1, !tbaa !61
  %20 = trunc i32 %4 to i8
  %21 = getelementptr inbounds nuw i8, ptr %18, i64 1
  store i8 %20, ptr %21, align 1, !tbaa !63
  %22 = trunc i32 %5 to i8
  %23 = getelementptr inbounds nuw i8, ptr %18, i64 2
  store i8 %22, ptr %23, align 1, !tbaa !64
  %24 = trunc i32 %6 to i8
  %25 = getelementptr inbounds nuw i8, ptr %18, i64 3
  store i8 %24, ptr %25, align 1, !tbaa !65
  %26 = trunc i32 %7 to i8
  %27 = getelementptr inbounds nuw i8, ptr %18, i64 4
  store i8 %26, ptr %27, align 1, !tbaa !66
  %28 = trunc i32 %8 to i8
  %29 = getelementptr inbounds nuw i8, ptr %18, i64 5
  store i8 %28, ptr %29, align 1, !tbaa !67
  %factor.op.mul38 = mul i32 %13, 3
  %30 = icmp sgt i32 %13, 0
  br i1 %30, label %.preheader.lr.ph.split.us, label %._crit_edge40

.preheader.lr.ph.split.us:                        ; preds = %9
  %31 = add nsw i32 %2, 1
  %32 = add nsw i32 %1, 1
  %33 = shl nuw i32 %13, 1
  %34 = getelementptr inbounds nuw i8, ptr %18, i64 6
  %35 = getelementptr inbounds nuw i8, ptr %0, i64 40
  %36 = getelementptr inbounds nuw i8, ptr %0, i64 32
  %37 = load ptr, ptr %36, align 8, !tbaa !88
  %38 = load i32, ptr %35, align 8, !tbaa !89
  %39 = sext i32 %32 to i64
  %40 = sext i32 %31 to i64
  %41 = sext i32 %38 to i64
  %smax = tail call i32 @llvm.smax.i32(i32 %33, i32 1)
  %wide.trip.count46 = zext nneg i32 %smax to i64
  %wide.trip.count = zext nneg i32 %13 to i64
  br label %.preheader.us

.preheader.us:                                    ; preds = %._crit_edge.us, %.preheader.lr.ph.split.us
  %indvars.iv43 = phi i64 [ %indvars.iv.next44, %._crit_edge.us ], [ 0, %.preheader.lr.ph.split.us ]
  %42 = trunc nuw nsw i64 %indvars.iv43 to i32
  %factor.op.mul.reass.us = mul i32 %factor.op.mul38, %42
  %43 = sext i32 %factor.op.mul.reass.us to i64
  %44 = getelementptr inbounds i8, ptr %34, i64 %43
  %45 = add nsw i64 %indvars.iv43, %40
  %46 = mul nsw i64 %45, %41
  %47 = getelementptr inbounds i8, ptr %37, i64 %46
  br label %48

48:                                               ; preds = %.preheader.us, %48
  %indvars.iv = phi i64 [ 0, %.preheader.us ], [ %indvars.iv.next, %48 ]
  %49 = mul nuw nsw i64 %indvars.iv, 3
  %50 = getelementptr inbounds nuw i8, ptr %44, i64 %49
  %51 = add nsw i64 %indvars.iv, %39
  %52 = mul nsw i64 %51, 3
  %53 = getelementptr inbounds i8, ptr %47, i64 %52
  tail call void @llvm.memcpy.p0.p0.i64(ptr noundef nonnull align 1 dereferenceable(3) %50, ptr noundef nonnull align 1 dereferenceable(3) %53, i64 3, i1 false)
  %indvars.iv.next = add nuw nsw i64 %indvars.iv, 1
  %exitcond.not = icmp eq i64 %indvars.iv.next, %wide.trip.count
  br i1 %exitcond.not, label %._crit_edge.us, label %48, !llvm.loop !93

._crit_edge.us:                                   ; preds = %48
  %indvars.iv.next44 = add nuw nsw i64 %indvars.iv43, 1
  %exitcond47.not = icmp eq i64 %indvars.iv.next44, %wide.trip.count46
  br i1 %exitcond47.not, label %._crit_edge40, label %.preheader.us, !llvm.loop !94

._crit_edge40:                                    ; preds = %._crit_edge.us, %9
  %54 = load ptr, ptr %0, align 8, !tbaa !92
  %55 = getelementptr inbounds nuw i8, ptr %54, i64 40
  %56 = load ptr, ptr %55, align 8, !tbaa !84
  %57 = getelementptr inbounds nuw i8, ptr %54, i64 56
  %58 = load i32, ptr %57, align 8, !tbaa !85
  %59 = add nsw i32 %58, 1
  store i32 %59, ptr %57, align 8, !tbaa !85
  %60 = sext i32 %58 to i64
  %61 = getelementptr inbounds ptr, ptr %56, i64 %60
  store ptr %18, ptr %61, align 8, !tbaa !60
  ret void
}